target datalayout = "e-m:e-p270:32:32-p271:32:32-p272:64:64-i64:64-i128:128-f80:128-n8:16:32:64-S128"
target triple = "x86_64-pc-linux-gnu"

%struct.diff_opt_t = type { i32, i32, i32, i32, i32, i32, i32, i32, i32, double, i32, i32, double, i8, i32, i32, i32, i32, i32, i32, i32, i32, ptr, ptr, i32, i64, i32, i64, i64, i32, i64, i64, [32 x i64], [32 x i64], [32 x i64], [32 x i64], [32 x i64], [32 x i64], [2 x ptr], [2 x ptr], [2 x %struct.h5tools_vol_info_t], [2 x %struct.h5tools_vfd_info_t], [2 x i8], [2 x i8], i64 }
%struct.h5tools_vol_info_t = type { i32, ptr, %union.anon }
%union.anon = type { ptr }
%struct.h5tools_vfd_info_t = type { i32, ptr, %union.anon.0 }
%union.anon.0 = type { ptr }
%struct.exclude_path_list = type { ptr, i32, ptr }

; Function Attrs: nounwind uwtable
define internal i32 @is_exclude_attr(ptr noundef %0, i32 noundef %1, ptr noundef %2) #1 {
  %4 = alloca ptr, align 8
  %5 = alloca i32, align 4
  %6 = alloca ptr, align 8
  %7 = alloca ptr, align 8
  %8 = alloca i32, align 4
  %9 = alloca i32, align 4
  %10 = alloca i64, align 8
  %11 = alloca i32, align 4
  store ptr %0, ptr %4, align 8, !tbaa !16
  store i32 %1, ptr %5, align 4, !tbaa !19
  store ptr %2, ptr %6, align 8, !tbaa !3
  call void @llvm.lifetime.start.p0(i64 8, ptr %7) #8
  call void @llvm.lifetime.start.p0(i64 4, ptr %8) #8
  call void @llvm.lifetime.start.p0(i64 4, ptr %9) #8
  store i32 0, ptr %9, align 4, !tbaa !19
  %12 = load ptr, ptr %6, align 8, !tbaa !3
  %13 = getelementptr inbounds nuw %struct.diff_opt_t, ptr %12, i32 0, i32 21
  %14 = load i32, ptr %13, align 8, !tbaa !94
  %15 = icmp ne i32 %14, 0
  br i1 %15, label %20, label %16

16:                                               ; preds = %3
  br label %17

17:                                               ; preds = %16
  store i32 0, ptr %9, align 4, !tbaa !19
  br label %79

18:                                               ; No predecessors!
  br label %19

19:                                               ; preds = %18
  br label %20

20:                                               ; preds = %19, %3
  %21 = load ptr, ptr %6, align 8, !tbaa !3
  %22 = getelementptr inbounds nuw %struct.diff_opt_t, ptr %21, i32 0, i32 23
  %23 = load ptr, ptr %22, align 8, !tbaa !89
  store ptr %23, ptr %7, align 8, !tbaa !90
  br label %24

24:                                               ; preds = %74, %20
  %25 = load ptr, ptr %7, align 8, !tbaa !90
  %26 = icmp ne ptr null, %25
  br i1 %26, label %27, label %78

27:                                               ; preds = %24
  %28 = load ptr, ptr %7, align 8, !tbaa !90
  %29 = getelementptr inbounds nuw %struct.exclude_path_list, ptr %28, i32 0, i32 1
  %30 = load i32, ptr %29, align 8, !tbaa !95
  %31 = icmp eq i32 %30, 0
  br i1 %31, label %32, label %61

32:                                               ; preds = %27
  %33 = load ptr, ptr %7, align 8, !tbaa !90
  %34 = getelementptr inbounds nuw %struct.exclude_path_list, ptr %33, i32 0, i32 0
  %35 = load ptr, ptr %34, align 8, !tbaa !96
  %36 = load ptr, ptr %4, align 8, !tbaa !16
  %37 = load ptr, ptr %7, align 8, !tbaa !90
  %38 = getelementptr inbounds nuw %struct.exclude_path_list, ptr %37, i32 0, i32 0
  %39 = load ptr, ptr %38, align 8, !tbaa !96
  %40 = call i64 @strlen(ptr noundef %39) #9
  %41 = call i32 @strncmp(ptr noundef %35, ptr noundef %36, i64 noundef %40) #9
  store i32 %41, ptr %8, align 4, !tbaa !19
  %42 = load i32, ptr %8, align 4, !tbaa !19
  %43 = icmp eq i32 %42, 0
  br i1 %43, label %44, label %60

44:                                               ; preds = %32
  call void @llvm.lifetime.start.p0(i64 8, ptr %10) #8
  %45 = load ptr, ptr %7, align 8, !tbaa !90
  %46 = getelementptr inbounds nuw %struct.exclude_path_list, ptr %45, i32 0, i32 0
  %47 = load ptr, ptr %46, align 8, !tbaa !96
  %48 = call i64 @strlen(ptr noundef %47) #9
  store i64 %48, ptr %10, align 8, !tbaa !7
  %49 = load ptr, ptr %4, align 8, !tbaa !16
  %50 = load i64, ptr %10, align 8, !tbaa !7
  %51 = getelementptr inbounds nuw i8, ptr %49, i64 %50
  %52 = load i8, ptr %51, align 1, !tbaa !31
  %53 = sext i8 %52 to i32
  %54 = icmp eq i32 %53, 47
  br i1 %54, label %55, label %56

55:                                               ; preds = %44
  store i32 1, ptr %9, align 4, !tbaa !19
  store i32 6, ptr %11, align 4
  br label %57

56:                                               ; preds = %44
  store i32 0, ptr %11, align 4
  br label %57

57:                                               ; preds = %56, %55
  call void @llvm.lifetime.end.p0(i64 8, ptr %10) #8
  %58 = load i32, ptr %11, align 4
  switch i32 %58, label %81 [
    i32 0, label %59
    i32 6, label %78
  ]

59:                                               ; preds = %57
  br label %60

60:                                               ; preds = %59, %32
  br label %74

61:                                               ; preds = %27
  %62 = load ptr, ptr %7, align 8, !tbaa !90
  %63 = getelementptr inbounds nuw %struct.exclude_path_list, ptr %62, i32 0, i32 0
  %64 = load ptr, ptr %63, align 8, !tbaa !96
  %65 = load ptr, ptr %4, align 8, !tbaa !16
  %66 = call i32 @strcmp(ptr noundef %64, ptr noundef %65) #9
  store i32 %66, ptr %8, align 4, !tbaa !19
  %67 = load i32, ptr %8, align 4, !tbaa !19
  %68 = icmp eq i32 %67, 0
  br i1 %68, label %69, label %73

69:                                               ; preds = %61
  store i32 1, ptr %9, align 4, !tbaa !19
  %70 = load i32, ptr %5, align 4, !tbaa !19
  %71 = load ptr, ptr %7, align 8, !tbaa !90
  %72 = getelementptr inbounds nuw %struct.exclude_path_list, ptr %71, i32 0, i32 1
  store i32 %70, ptr %72, align 8, !tbaa !95
  br label %78

73:                                               ; preds = %61
  br label %74

74:                                               ; preds = %73, %60
  %75 = load ptr, ptr %7, align 8, !tbaa !90
  %76 = getelementptr inbounds nuw %struct.exclude_path_list, ptr %75, i32 0, i32 2
  %77 = load ptr, ptr %76, align 8, !tbaa !91
  store ptr %77, ptr %7, align 8, !tbaa !90
  br label %24, !llvm.loop !97

78:                                               ; preds = %69, %57, %24
  br label %79

79:                                               ; preds = %78, %17
  %80 = load i32, ptr %9, align 4, !tbaa !19
  store i32 1, ptr %11, align 4
  call void @llvm.lifetime.end.p0(i64 4, ptr %9) #8
  call void @llvm.lifetime.end.p0(i64 4, ptr %8) #8
  call void @llvm.lifetime.end.p0(i64 8, ptr %7) #8
  ret i32 %80

81:                                               ; preds = %57
  unreachable
}