; Function Attrs: nofree nounwind memory(readwrite, inaccessiblemem: none) uwtable
define internal fastcc range(i32 0, 2) i32 @is_exclude_attr(ptr noundef nonnull readonly captures(none) %0, i32 noundef %1, ptr noundef readonly captures(none) %2) unnamed_addr #11 {
  %4 = getelementptr inbounds nuw i8, ptr %2, i64 96
  %5 = load i32, ptr %4, align 8, !tbaa !95
  %.not = icmp eq i32 %5, 0
  br i1 %.not, label %.loopexit, label %6

6:                                                ; preds = %3
  %7 = getelementptr inbounds nuw i8, ptr %2, i64 112
  %.01821 = load ptr, ptr %7, align 8, !tbaa !72
  %.not2022 = icmp eq ptr %.01821, null
  br i1 %.not2022, label %.loopexit, label %.lr.ph

.lr.ph:                                           ; preds = %6, %25
  %.01823 = phi ptr [ %.018, %25 ], [ %.01821, %6 ]
  %8 = getelementptr inbounds nuw i8, ptr %.01823, i64 8
  %9 = load i32, ptr %8, align 8, !tbaa !73
  %10 = icmp eq i32 %9, 0
  %11 = load ptr, ptr %.01823, align 8, !tbaa !75
  br i1 %10, label %12, label %20

12:                                               ; preds = %.lr.ph
  %13 = tail call i64 @strlen(ptr noundef nonnull dereferenceable(1) %11) #17
  %14 = tail call i32 @strncmp(ptr noundef nonnull %11, ptr noundef nonnull %0, i64 noundef %13) #17
  %15 = icmp eq i32 %14, 0
  br i1 %15, label %16, label %25

16:                                               ; preds = %12
  %17 = getelementptr inbounds nuw i8, ptr %0, i64 %13
  %18 = load i8, ptr %17, align 1, !tbaa !33
  %19 = icmp eq i8 %18, 47
  br i1 %19, label %.loopexit, label %25

20:                                               ; preds = %.lr.ph
  %21 = tail call i32 @strcmp(ptr noundef nonnull dereferenceable(1) %11, ptr noundef nonnull dereferenceable(1) %0) #17
  %22 = icmp eq i32 %21, 0
  br i1 %22, label %23, label %25

23:                                               ; preds = %20
  %24 = getelementptr inbounds nuw i8, ptr %.01823, i64 8
  store i32 %1, ptr %24, align 8, !tbaa !73
  br label %.loopexit

25:                                               ; preds = %16, %20, %12
  %26 = getelementptr inbounds nuw i8, ptr %.01823, i64 16
  %.018 = load ptr, ptr %26, align 8, !tbaa !72
  %.not20 = icmp eq ptr %.018, null
  br i1 %.not20, label %.loopexit, label %.lr.ph, !llvm.loop !96

.loopexit:                                        ; preds = %25, %16, %6, %3, %23
  %.019 = phi i32 [ 1, %23 ], [ 0, %3 ], [ 0, %6 ], [ 0, %25 ], [ 1, %16 ]
  ret i32 %.019
}